
.pioenvs/bluepill_f103c8/firmware.elf:     file format elf32-littlearm

SYMBOL TABLE:
08000000 l    d  .text	00000000 .text
080002e4 l    d  .preinit_array	00000000 .preinit_array
080002e4 l    d  .init_array	00000000 .init_array
080002e4 l    d  .fini_array	00000000 .fini_array
20000000 l    d  .data	00000000 .data
20000004 l    d  .bss	00000000 .bss
00000000 l    d  .debug_info	00000000 .debug_info
00000000 l    d  .debug_abbrev	00000000 .debug_abbrev
00000000 l    d  .debug_loc	00000000 .debug_loc
00000000 l    d  .debug_aranges	00000000 .debug_aranges
00000000 l    d  .debug_ranges	00000000 .debug_ranges
00000000 l    d  .debug_line	00000000 .debug_line
00000000 l    d  .debug_str	00000000 .debug_str
00000000 l    d  .comment	00000000 .comment
00000000 l    d  .ARM.attributes	00000000 .ARM.attributes
00000000 l    d  .debug_frame	00000000 .debug_frame
00000000 l    df *ABS*	00000000 vector.c
00000000 l    df *ABS*	00000000 main.c
00000000 l    df *ABS*	00000000 gpio.c
00000000 l    df *ABS*	00000000 gpio_common_all.c
00000000 l    df *ABS*	00000000 rcc_common_all.c
08000254  w    F .text	00000090 reset_handler
0800024e  w    F .text	00000002 usart3_isr
0800024e  w    F .text	00000002 rtc_isr
0800024e  w    F .text	00000002 tim7_isr
0800024e  w    F .text	00000002 adc1_2_isr
0800024e  w    F .text	00000002 tim1_trg_com_isr
080002e4 g       .fini_array	00000000 __exidx_end
0800024e  w    F .text	00000002 usb_hp_can_tx_isr
0800024e  w    F .text	00000002 tim6_isr
080002e4 g       .data	00000000 _etext
080001c0 g     F .text	00000062 gpio_set_mode
0800024e  w    F .text	00000002 usb_wakeup_isr
0800024e g     F .text	00000002 blocking_handler
0800024e  w    F .text	00000002 tim5_isr
0800024e  w    F .text	00000002 otg_fs_isr
0800024e  w    F .text	00000002 spi1_isr
0800024e  w    F .text	00000002 exti2_isr
0800024e  w    F .text	00000002 dma1_channel6_isr
08000250 g     F .text	00000002 null_handler
0800024e  w    F .text	00000002 can_rx1_isr
080002e4 g       .fini_array	00000000 __fini_array_end
0800024e  w    F .text	00000002 dma1_channel5_isr
08000222 g     F .text	00000012 gpio_toggle
0800024e  w    F .text	00000002 dma2_channel5_isr
0800024e  w    F .text	00000002 usart1_isr
0800024e  w    F .text	00000002 usage_fault_handler
0800024e  w    F .text	00000002 tim8_trg_com_isr
0800024e  w    F .text	00000002 can2_rx0_isr
0800024e  w    F .text	00000002 tim1_brk_isr
080002e4 g       .fini_array	00000000 __exidx_start
0800024e  w    F .text	00000002 can2_rx1_isr
0800024e  w    F .text	00000002 tim1_cc_isr
20000000 g     O .data	00000004 data_var
08000234 g     F .text	0000001a rcc_periph_clock_enable
0800024e  w    F .text	00000002 sdio_isr
0800024e  w    F .text	00000002 eth_isr
0800024e  w    F .text	00000002 dma1_channel4_isr
0800024e  w    F .text	00000002 tim8_brk_isr
0800024e  w    F .text	00000002 dma2_channel4_5_isr
20000008 g       .bss	00000000 _ebss
0800024e  w    F .text	00000002 pvd_isr
08000250  w    F .text	00000002 sv_call_handler
0800024e  w    F .text	00000002 rcc_isr
08000000 g     O .text	00000150 vector_table
0800024e  w    F .text	00000002 flash_isr
080002e4 g       *ABS*	00000000 _data_loadaddr
20000008 g       .bss	00000000 end
0800024e  w    F .text	00000002 uart4_isr
0800024e  w    F .text	00000002 rtc_alarm_isr
0800024e  w    F .text	00000002 exti15_10_isr
0800024e  w    F .text	00000002 hard_fault_handler
0800024e  w    F .text	00000002 exti1_isr
0800024e  w    F .text	00000002 i2c1_ev_isr
0800024e  w    F .text	00000002 dma2_channel1_isr
08000250  w    F .text	00000002 pend_sv_handler
0800024e  w    F .text	00000002 spi2_isr
0800024e  w    F .text	00000002 tim8_up_isr
20000004 g     O .bss	00000004 bss_var
0800024e  w    F .text	00000002 dma2_channel2_isr
08000250  w    F .text	00000002 debug_monitor_handler
0800024e  w    F .text	00000002 exti3_isr
0800024e  w    F .text	00000002 adc3_isr
0800024e  w    F .text	00000002 tim3_isr
0800024e  w    F .text	00000002 usart2_isr
0800024e  w    F .text	00000002 usb_lp_can_rx0_isr
080002e4 g       .fini_array	00000000 __fini_array_start
0800024e  w    F .text	00000002 i2c2_er_isr
08000150 g     F .text	00000070 main
0800024e  w    F .text	00000002 i2c2_ev_isr
0800024e  w    F .text	00000002 uart5_isr
08000250  w    F .text	00000002 sys_tick_handler
080002e4 g       .init_array	00000000 __init_array_end
0800024e  w    F .text	00000002 fsmc_isr
0800024e  w    F .text	00000002 dma1_channel1_isr
0800024e  w    F .text	00000002 exti4_isr
0800024e  w    F .text	00000002 mem_manage_handler
0800024e  w    F .text	00000002 can2_tx_isr
0800024e  w    F .text	00000002 exti9_5_isr
0800024e  w    F .text	00000002 dma2_channel3_isr
080002e4 g       .preinit_array	00000000 __preinit_array_end
0800024e  w    F .text	00000002 dma1_channel7_isr
20000000 g       .data	00000000 _data
0800024e  w    F .text	00000002 tim1_up_isr
0800024e  w    F .text	00000002 can2_sce_isr
0800024e  w    F .text	00000002 tim4_isr
20000004 g       .data	00000000 _edata
0800024e  w    F .text	00000002 dma1_channel2_isr
0800024e  w    F .text	00000002 i2c1_er_isr
0800024e  w    F .text	00000002 can_sce_isr
08000250  w    F .text	00000002 nmi_handler
0800024e  w    F .text	00000002 tim8_cc_isr
0800024e  w    F .text	00000002 tamper_isr
080002e4 g       .init_array	00000000 __init_array_start
0800024e  w    F .text	00000002 eth_wkup_isr
20005000 g       .bss	00000000 _stack
0800024e  w    F .text	00000002 bus_fault_handler
0800024e  w    F .text	00000002 wwdg_isr
0800024e  w    F .text	00000002 dma1_channel3_isr
080002e4 g       .preinit_array	00000000 __preinit_array_start
0800024e  w    F .text	00000002 spi3_isr
0800024e  w    F .text	00000002 tim2_isr
0800024e  w    F .text	00000002 exti0_isr



Disassembly of section .text:

08000000 <vector_table>:
 8000000:	00 50 00 20 55 02 00 08 51 02 00 08 4f 02 00 08     .P. U...Q...O...
 8000010:	4f 02 00 08 4f 02 00 08 4f 02 00 08 00 00 00 00     O...O...O.......
	...
 800002c:	51 02 00 08 51 02 00 08 00 00 00 00 51 02 00 08     Q...Q.......Q...
 800003c:	51 02 00 08 4f 02 00 08 4f 02 00 08 4f 02 00 08     Q...O...O...O...
 800004c:	4f 02 00 08 4f 02 00 08 4f 02 00 08 4f 02 00 08     O...O...O...O...
 800005c:	4f 02 00 08 4f 02 00 08 4f 02 00 08 4f 02 00 08     O...O...O...O...
 800006c:	4f 02 00 08 4f 02 00 08 4f 02 00 08 4f 02 00 08     O...O...O...O...
 800007c:	4f 02 00 08 4f 02 00 08 4f 02 00 08 4f 02 00 08     O...O...O...O...
 800008c:	4f 02 00 08 4f 02 00 08 4f 02 00 08 4f 02 00 08     O...O...O...O...
 800009c:	4f 02 00 08 4f 02 00 08 4f 02 00 08 4f 02 00 08     O...O...O...O...
 80000ac:	4f 02 00 08 4f 02 00 08 4f 02 00 08 4f 02 00 08     O...O...O...O...
 80000bc:	4f 02 00 08 4f 02 00 08 4f 02 00 08 4f 02 00 08     O...O...O...O...
 80000cc:	4f 02 00 08 4f 02 00 08 4f 02 00 08 4f 02 00 08     O...O...O...O...
 80000dc:	4f 02 00 08 4f 02 00 08 4f 02 00 08 4f 02 00 08     O...O...O...O...
 80000ec:	4f 02 00 08 4f 02 00 08 4f 02 00 08 4f 02 00 08     O...O...O...O...
 80000fc:	4f 02 00 08 4f 02 00 08 4f 02 00 08 4f 02 00 08     O...O...O...O...
 800010c:	4f 02 00 08 4f 02 00 08 4f 02 00 08 4f 02 00 08     O...O...O...O...
 800011c:	4f 02 00 08 4f 02 00 08 4f 02 00 08 4f 02 00 08     O...O...O...O...
 800012c:	4f 02 00 08 4f 02 00 08 4f 02 00 08 4f 02 00 08     O...O...O...O...
 800013c:	4f 02 00 08 4f 02 00 08 4f 02 00 08 4f 02 00 08     O...O...O...O...
 800014c:	4f 02 00 08                                         O...

08000150 <main>:
main():
/Users/Luppy/stm32bluepill-blink/src/main.c:43
	/* Using API functions: */
	gpio_set_mode(LEDPORT, GPIO_MODE_OUTPUT_2_MHZ, GPIO_CNF_OUTPUT_PUSHPULL, LEDPIN);
}

int main(void)
{	
 8000150:	b5f8      	push	{r3, r4, r5, r6, r7, lr}
/Users/Luppy/stm32bluepill-blink/src/main.c:44
	int stack_var = bss_var++ + data_var++;
 8000152:	4e18      	ldr	r6, [pc, #96]	; (80001b4 <main+0x64>)
 8000154:	4d18      	ldr	r5, [pc, #96]	; (80001b8 <main+0x68>)
 8000156:	6834      	ldr	r4, [r6, #0]
gpio_setup():
/Users/Luppy/stm32bluepill-blink/src/main.c:36
	rcc_periph_clock_enable(RCCLEDPORT);
 8000158:	f44f 7041 	mov.w	r0, #772	; 0x304
main():
/Users/Luppy/stm32bluepill-blink/src/main.c:44
	int stack_var = bss_var++ + data_var++;
 800015c:	1c63      	adds	r3, r4, #1
 800015e:	6033      	str	r3, [r6, #0]
 8000160:	682b      	ldr	r3, [r5, #0]
/Users/Luppy/stm32bluepill-blink/src/main.c:50
	int i;
	gpio_setup();
	/* Blink the LED on the board. */
	while (1) {
		/* Using API function gpio_toggle(): */
		gpio_toggle(LEDPORT, LEDPIN);	/* LED on/off */
 8000162:	4f16      	ldr	r7, [pc, #88]	; (80001bc <main+0x6c>)
/Users/Luppy/stm32bluepill-blink/src/main.c:44
	int stack_var = bss_var++ + data_var++;
 8000164:	1c5a      	adds	r2, r3, #1
 8000166:	602a      	str	r2, [r5, #0]
 8000168:	441c      	add	r4, r3
gpio_setup():
/Users/Luppy/stm32bluepill-blink/src/main.c:36
	rcc_periph_clock_enable(RCCLEDPORT);
 800016a:	f000 f863 	bl	8000234 <rcc_periph_clock_enable>
/Users/Luppy/stm32bluepill-blink/src/main.c:39
	gpio_set_mode(LEDPORT, GPIO_MODE_OUTPUT_2_MHZ, GPIO_CNF_OUTPUT_PUSHPULL, LEDPIN);
 800016e:	f44f 5300 	mov.w	r3, #8192	; 0x2000
 8000172:	2200      	movs	r2, #0
 8000174:	2102      	movs	r1, #2
 8000176:	4811      	ldr	r0, [pc, #68]	; (80001bc <main+0x6c>)
 8000178:	f000 f822 	bl	80001c0 <gpio_set_mode>
main():
/Users/Luppy/stm32bluepill-blink/src/main.c:50
		gpio_toggle(LEDPORT, LEDPIN);	/* LED on/off */
 800017c:	f44f 5100 	mov.w	r1, #8192	; 0x2000
 8000180:	4638      	mov	r0, r7
 8000182:	f000 f84e 	bl	8000222 <gpio_toggle>
/Users/Luppy/stm32bluepill-blink/src/main.c:52
		/* Reference ss_var + data_var + stack_var here so the compiler won't optimise them away. */
		for (i = 0; i < 1000000 + bss_var++ + data_var++ + stack_var++; i++) {	/* Wait a bit. */
 8000186:	4622      	mov	r2, r4
/Users/Luppy/stm32bluepill-blink/src/main.c:52 (discriminator 1)
 8000188:	6833      	ldr	r3, [r6, #0]
 800018a:	6828      	ldr	r0, [r5, #0]
 800018c:	1c59      	adds	r1, r3, #1
 800018e:	f503 2374 	add.w	r3, r3, #999424	; 0xf4000
 8000192:	f503 7310 	add.w	r3, r3, #576	; 0x240
 8000196:	6031      	str	r1, [r6, #0]
 8000198:	4403      	add	r3, r0
 800019a:	1c41      	adds	r1, r0, #1
 800019c:	4413      	add	r3, r2
 800019e:	6029      	str	r1, [r5, #0]
 80001a0:	1c51      	adds	r1, r2, #1
 80001a2:	1b12      	subs	r2, r2, r4
 80001a4:	4293      	cmp	r3, r2
 80001a6:	dc01      	bgt.n	80001ac <main+0x5c>
/Users/Luppy/stm32bluepill-blink/src/main.c:52
 80001a8:	460c      	mov	r4, r1
 80001aa:	e7e7      	b.n	800017c <main+0x2c>
/Users/Luppy/stm32bluepill-blink/src/main.c:53 (discriminator 3)
			__asm__("nop");
 80001ac:	bf00      	nop
/Users/Luppy/stm32bluepill-blink/src/main.c:52 (discriminator 3)
		for (i = 0; i < 1000000 + bss_var++ + data_var++ + stack_var++; i++) {	/* Wait a bit. */
 80001ae:	460a      	mov	r2, r1
 80001b0:	e7ea      	b.n	8000188 <main+0x38>
 80001b2:	bf00      	nop
 80001b4:	20000004 	.word	0x20000004
 80001b8:	20000000 	.word	0x20000000
 80001bc:	40011000 	.word	0x40011000

080001c0 <gpio_set_mode>:
gpio_set_mode():
/Users/Luppy/.platformio/packages/framework-libopencm3/lib/stm32/f1/gpio.c:96
	     If multiple pins are to be set, use logical OR '|' to separate
	     them.
*/

void gpio_set_mode(uint32_t gpioport, uint8_t mode, uint8_t cnf, uint16_t gpios)
{
 80001c0:	e92d 43f0 	stmdb	sp!, {r4, r5, r6, r7, r8, r9, lr}
/Users/Luppy/.platformio/packages/framework-libopencm3/lib/stm32/f1/gpio.c:105
	/*
	 * We want to set the config only for the pins mentioned in gpios,
	 * but keeping the others, so read out the actual config first.
	 */
	crl = GPIO_CRL(gpioport);
	crh = GPIO_CRH(gpioport);
 80001c4:	2600      	movs	r6, #0
/Users/Luppy/.platformio/packages/framework-libopencm3/lib/stm32/f1/gpio.c:121

		/* Use tmp32 to either modify crl or crh. */
		tmp32 = (i < 8) ? crl : crh;

		/* Modify bits are needed. */
		tmp32 &= ~(0xf << offset);	/* Clear the bits first. */
 80001c6:	f04f 0e0f 	mov.w	lr, #15
 80001ca:	f643 78f8 	movw	r8, #16376	; 0x3ff8
/Users/Luppy/.platformio/packages/framework-libopencm3/lib/stm32/f1/gpio.c:96
{
 80001ce:	469c      	mov	ip, r3
/Users/Luppy/.platformio/packages/framework-libopencm3/lib/stm32/f1/gpio.c:104
	crl = GPIO_CRL(gpioport);
 80001d0:	6803      	ldr	r3, [r0, #0]
/Users/Luppy/.platformio/packages/framework-libopencm3/lib/stm32/f1/gpio.c:105
	crh = GPIO_CRH(gpioport);
 80001d2:	6847      	ldr	r7, [r0, #4]
/Users/Luppy/.platformio/packages/framework-libopencm3/lib/stm32/f1/gpio.c:110
		if (!((1 << i) & gpios)) {
 80001d4:	fa4c f406 	asr.w	r4, ip, r6
 80001d8:	07e4      	lsls	r4, r4, #31
 80001da:	d51b      	bpl.n	8000214 <gpio_set_mode+0x54>
/Users/Luppy/.platformio/packages/framework-libopencm3/lib/stm32/f1/gpio.c:115
		offset = (i < 8) ? (i * 4) : ((i - 8) * 4);
 80001dc:	2e07      	cmp	r6, #7
 80001de:	bf94      	ite	ls
 80001e0:	4699      	movls	r9, r3
 80001e2:	46b9      	movhi	r9, r7
 80001e4:	b2b4      	uxth	r4, r6
 80001e6:	bf8b      	itete	hi
 80001e8:	4444      	addhi	r4, r8
 80001ea:	00a4      	lslls	r4, r4, #2
 80001ec:	00a4      	lslhi	r4, r4, #2
 80001ee:	b2a4      	uxthls	r4, r4
 80001f0:	bf88      	it	hi
 80001f2:	b2a4      	uxthhi	r4, r4
/Users/Luppy/.platformio/packages/framework-libopencm3/lib/stm32/f1/gpio.c:121
		tmp32 &= ~(0xf << offset);	/* Clear the bits first. */
 80001f4:	fa0e f504 	lsl.w	r5, lr, r4
 80001f8:	ea29 0905 	bic.w	r9, r9, r5
/Users/Luppy/.platformio/packages/framework-libopencm3/lib/stm32/f1/gpio.c:122
		tmp32 |= (mode << offset) | (cnf << (offset + 2));
 80001fc:	1ca5      	adds	r5, r4, #2
 80001fe:	fa02 f505 	lsl.w	r5, r2, r5
 8000202:	fa01 f404 	lsl.w	r4, r1, r4
 8000206:	432c      	orrs	r4, r5
 8000208:	ea44 0409 	orr.w	r4, r4, r9
/Users/Luppy/.platformio/packages/framework-libopencm3/lib/stm32/f1/gpio.c:126

		/* Write tmp32 into crl or crh, leave the other unchanged. */
		crl = (i < 8) ? tmp32 : crl;
		crh = (i >= 8) ? tmp32 : crh;
 800020c:	2e08      	cmp	r6, #8
 800020e:	bf2c      	ite	cs
 8000210:	4627      	movcs	r7, r4
 8000212:	4623      	movcc	r3, r4
 8000214:	3601      	adds	r6, #1
/Users/Luppy/.platformio/packages/framework-libopencm3/lib/stm32/f1/gpio.c:108 (discriminator 2)
	for (i = 0; i < 16; i++) {
 8000216:	2e10      	cmp	r6, #16
 8000218:	d1dc      	bne.n	80001d4 <gpio_set_mode+0x14>
/Users/Luppy/.platformio/packages/framework-libopencm3/lib/stm32/f1/gpio.c:129
	}

	GPIO_CRL(gpioport) = crl;
 800021a:	6003      	str	r3, [r0, #0]
/Users/Luppy/.platformio/packages/framework-libopencm3/lib/stm32/f1/gpio.c:130
	GPIO_CRH(gpioport) = crh;
 800021c:	6047      	str	r7, [r0, #4]
/Users/Luppy/.platformio/packages/framework-libopencm3/lib/stm32/f1/gpio.c:131
}
 800021e:	e8bd 83f0 	ldmia.w	sp!, {r4, r5, r6, r7, r8, r9, pc}

08000222 <gpio_toggle>:
gpio_toggle():
/Users/Luppy/.platformio/packages/framework-libopencm3/lib/stm32/common/gpio_common_all.c:90
	     If multiple pins are to be changed, use logical OR '|' to separate
	     them.
*/
void gpio_toggle(uint32_t gpioport, uint16_t gpios)
{
	uint32_t port = GPIO_ODR(gpioport);
 8000222:	68c3      	ldr	r3, [r0, #12]
/Users/Luppy/.platformio/packages/framework-libopencm3/lib/stm32/common/gpio_common_all.c:91
	GPIO_BSRR(gpioport) = ((port & gpios) << 16) | (~port & gpios);
 8000224:	ea01 0203 	and.w	r2, r1, r3
 8000228:	ea21 0103 	bic.w	r1, r1, r3
 800022c:	ea41 4102 	orr.w	r1, r1, r2, lsl #16
 8000230:	6101      	str	r1, [r0, #16]
/Users/Luppy/.platformio/packages/framework-libopencm3/lib/stm32/common/gpio_common_all.c:92
}
 8000232:	4770      	bx	lr

08000234 <rcc_periph_clock_enable>:
rcc_periph_clock_enable():
/Users/Luppy/.platformio/packages/framework-libopencm3/lib/stm32/common/rcc_common_all.c:123
 * For available constants, see #rcc_periph_clken (RCC_UART1 for example)
 */

void rcc_periph_clock_enable(enum rcc_periph_clken clken)
{
	_RCC_REG(clken) |= _RCC_BIT(clken);
 8000234:	0943      	lsrs	r3, r0, #5
 8000236:	f000 021f 	and.w	r2, r0, #31
 800023a:	2001      	movs	r0, #1
 800023c:	f103 4380 	add.w	r3, r3, #1073741824	; 0x40000000
 8000240:	f503 3304 	add.w	r3, r3, #135168	; 0x21000
 8000244:	6819      	ldr	r1, [r3, #0]
 8000246:	4090      	lsls	r0, r2
 8000248:	4308      	orrs	r0, r1
 800024a:	6018      	str	r0, [r3, #0]
/Users/Luppy/.platformio/packages/framework-libopencm3/lib/stm32/common/rcc_common_all.c:124
}
 800024c:	4770      	bx	lr

0800024e <blocking_handler>:
blocking_handler():
/Users/Luppy/.platformio/packages/framework-libopencm3/lib/cm3/vector.c:104
	}

}

void blocking_handler(void)
{
 800024e:	e7fe      	b.n	800024e <blocking_handler>

08000250 <null_handler>:
null_handler():
/Users/Luppy/.platformio/packages/framework-libopencm3/lib/cm3/vector.c:111
}

void null_handler(void)
{
	/* Do nothing. */
}
 8000250:	4770      	bx	lr
	...

08000254 <reset_handler>:
reset_handler():
/Users/Luppy/.platformio/packages/framework-libopencm3/lib/cm3/vector.c:68
	for (src = &_data_loadaddr, dest = &_data;
 8000254:	2200      	movs	r2, #0
 8000256:	4c18      	ldr	r4, [pc, #96]	; (80002b8 <reset_handler+0x64>)
 8000258:	4918      	ldr	r1, [pc, #96]	; (80002bc <reset_handler+0x68>)
 800025a:	4819      	ldr	r0, [pc, #100]	; (80002c0 <reset_handler+0x6c>)
 800025c:	1853      	adds	r3, r2, r1
/Users/Luppy/.platformio/packages/framework-libopencm3/lib/cm3/vector.c:68 (discriminator 1)
 800025e:	4283      	cmp	r3, r0
 8000260:	d316      	bcc.n	8000290 <reset_handler+0x3c>
/Users/Luppy/.platformio/packages/framework-libopencm3/lib/cm3/vector.c:75
		*dest++ = 0;
 8000262:	2100      	movs	r1, #0
/Users/Luppy/.platformio/packages/framework-libopencm3/lib/cm3/vector.c:74
	while (dest < &_ebss) {
 8000264:	4a17      	ldr	r2, [pc, #92]	; (80002c4 <reset_handler+0x70>)
 8000266:	4293      	cmp	r3, r2
 8000268:	d316      	bcc.n	8000298 <reset_handler+0x44>
/Users/Luppy/.platformio/packages/framework-libopencm3/lib/cm3/vector.c:80
	SCB_CCR |= SCB_CCR_STKALIGN;
 800026a:	4a17      	ldr	r2, [pc, #92]	; (80002c8 <reset_handler+0x74>)
/Users/Luppy/.platformio/packages/framework-libopencm3/lib/cm3/vector.c:86
	for (fp = &__preinit_array_start; fp < &__preinit_array_end; fp++) {
 800026c:	4c17      	ldr	r4, [pc, #92]	; (80002cc <reset_handler+0x78>)
/Users/Luppy/.platformio/packages/framework-libopencm3/lib/cm3/vector.c:80
	SCB_CCR |= SCB_CCR_STKALIGN;
 800026e:	6813      	ldr	r3, [r2, #0]
/Users/Luppy/.platformio/packages/framework-libopencm3/lib/cm3/vector.c:86
	for (fp = &__preinit_array_start; fp < &__preinit_array_end; fp++) {
 8000270:	4d17      	ldr	r5, [pc, #92]	; (80002d0 <reset_handler+0x7c>)
/Users/Luppy/.platformio/packages/framework-libopencm3/lib/cm3/vector.c:80
	SCB_CCR |= SCB_CCR_STKALIGN;
 8000272:	f443 7300 	orr.w	r3, r3, #512	; 0x200
 8000276:	6013      	str	r3, [r2, #0]
/Users/Luppy/.platformio/packages/framework-libopencm3/lib/cm3/vector.c:86 (discriminator 1)
	for (fp = &__preinit_array_start; fp < &__preinit_array_end; fp++) {
 8000278:	42ac      	cmp	r4, r5
 800027a:	d310      	bcc.n	800029e <reset_handler+0x4a>
/Users/Luppy/.platformio/packages/framework-libopencm3/lib/cm3/vector.c:89
	for (fp = &__init_array_start; fp < &__init_array_end; fp++) {
 800027c:	4c15      	ldr	r4, [pc, #84]	; (80002d4 <reset_handler+0x80>)
 800027e:	4d16      	ldr	r5, [pc, #88]	; (80002d8 <reset_handler+0x84>)
/Users/Luppy/.platformio/packages/framework-libopencm3/lib/cm3/vector.c:89 (discriminator 1)
 8000280:	42ac      	cmp	r4, r5
 8000282:	d310      	bcc.n	80002a6 <reset_handler+0x52>
/Users/Luppy/.platformio/packages/framework-libopencm3/lib/cm3/vector.c:94
	main();
 8000284:	f7ff ff64 	bl	8000150 <main>
/Users/Luppy/.platformio/packages/framework-libopencm3/lib/cm3/vector.c:97
	for (fp = &__fini_array_start; fp < &__fini_array_end; fp++) {
 8000288:	4c14      	ldr	r4, [pc, #80]	; (80002dc <reset_handler+0x88>)
 800028a:	4d15      	ldr	r5, [pc, #84]	; (80002e0 <reset_handler+0x8c>)
/Users/Luppy/.platformio/packages/framework-libopencm3/lib/cm3/vector.c:97 (discriminator 1)
 800028c:	42ac      	cmp	r4, r5
 800028e:	d30e      	bcc.n	80002ae <reset_handler+0x5a>
/Users/Luppy/.platformio/packages/framework-libopencm3/lib/cm3/vector.c:71
		*dest = *src;
 8000290:	5913      	ldr	r3, [r2, r4]
 8000292:	5053      	str	r3, [r2, r1]
 8000294:	3204      	adds	r2, #4
 8000296:	e7e1      	b.n	800025c <reset_handler+0x8>
/Users/Luppy/.platformio/packages/framework-libopencm3/lib/cm3/vector.c:75
		*dest++ = 0;
 8000298:	6019      	str	r1, [r3, #0]
 800029a:	3304      	adds	r3, #4
 800029c:	e7e3      	b.n	8000266 <reset_handler+0x12>
/Users/Luppy/.platformio/packages/framework-libopencm3/lib/cm3/vector.c:87 (discriminator 3)
		(*fp)();
 800029e:	f854 3b04 	ldr.w	r3, [r4], #4
 80002a2:	4798      	blx	r3
 80002a4:	e7e8      	b.n	8000278 <reset_handler+0x24>
/Users/Luppy/.platformio/packages/framework-libopencm3/lib/cm3/vector.c:90 (discriminator 3)
		(*fp)();
 80002a6:	f854 3b04 	ldr.w	r3, [r4], #4
 80002aa:	4798      	blx	r3
 80002ac:	e7e8      	b.n	8000280 <reset_handler+0x2c>
/Users/Luppy/.platformio/packages/framework-libopencm3/lib/cm3/vector.c:98 (discriminator 3)
		(*fp)();
 80002ae:	f854 3b04 	ldr.w	r3, [r4], #4
 80002b2:	4798      	blx	r3
 80002b4:	e7ea      	b.n	800028c <reset_handler+0x38>
 80002b6:	bf00      	nop
 80002b8:	080002e4 	.word	0x080002e4
 80002bc:	20000000 	.word	0x20000000
 80002c0:	20000004 	.word	0x20000004
 80002c4:	20000008 	.word	0x20000008
 80002c8:	e000ed14 	.word	0xe000ed14
 80002cc:	080002e4 	.word	0x080002e4
 80002d0:	080002e4 	.word	0x080002e4
 80002d4:	080002e4 	.word	0x080002e4
 80002d8:	080002e4 	.word	0x080002e4
 80002dc:	080002e4 	.word	0x080002e4
 80002e0:	080002e4 	.word	0x080002e4
